; Function Attrs: mustprogress nounwind uwtable
define hidden void @_ZN16SystemDictionary20add_resolution_errorERK18constantPoolHandleiP6SymbolPKcS4_S6_(ptr noundef nonnull align 8 dereferenceable(16) %0, i32 noundef %1, ptr noundef %2, ptr noundef %3, ptr noundef %4, ptr noundef %5) local_unnamed_addr #0 align 2 {
  %7 = load ptr, ptr @SystemDictionary_lock, align 8
  %.not.i.i = icmp eq ptr %7, null
  br i1 %.not.i.i, label %_ZN11MutexLockerC2EP6ThreadP5MutexNS2_18SafepointCheckFlagE.exit, label %8

8:                                                ; preds = %6
  %9 = tail call align 8 ptr @llvm.threadlocal.address.p0(ptr align 8 @_ZN6Thread12_thr_currentE)
  %10 = load ptr, ptr %9, align 8
  tail call void @_ZN5Mutex4lockEP6Thread(ptr noundef nonnull align 8 dereferenceable(104) %7, ptr noundef %10) #14
  br label %_ZN11MutexLockerC2EP6ThreadP5MutexNS2_18SafepointCheckFlagE.exit

_ZN11MutexLockerC2EP6ThreadP5MutexNS2_18SafepointCheckFlagE.exit: ; preds = %6, %8
  %11 = tail call noundef ptr @_ZN20ResolutionErrorTable10find_entryERK18constantPoolHandlei(ptr noundef nonnull align 8 dereferenceable(16) %0, i32 noundef %1) #14
  %12 = icmp eq ptr %11, null
  br i1 %12, label %13, label %14

13:                                               ; preds = %_ZN11MutexLockerC2EP6ThreadP5MutexNS2_18SafepointCheckFlagE.exit
  tail call void @_ZN20ResolutionErrorTable9add_entryERK18constantPoolHandleiP6SymbolPKcS4_S6_(ptr noundef nonnull align 8 dereferenceable(16) %0, i32 noundef %1, ptr noundef %2, ptr noundef %3, ptr noundef %4, ptr noundef %5) #14
  br label %14

14:                                               ; preds = %13, %_ZN11MutexLockerC2EP6ThreadP5MutexNS2_18SafepointCheckFlagE.exit
  br i1 %.not.i.i, label %_ZN11MutexLockerD2Ev.exit, label %15

15:                                               ; preds = %14
  tail call void @_ZN5Mutex6unlockEv(ptr noundef nonnull align 8 dereferenceable(104) %7) #14
  br label %_ZN11MutexLockerD2Ev.exit

_ZN11MutexLockerD2Ev.exit:                        ; preds = %14, %15
  ret void
}